target datalayout = "e-m:e-p270:32:32-p271:32:32-p272:64:64-i64:64-i128:128-f80:128-n8:16:32:64-S128"
target triple = "x86_64-pc-linux-gnu"

%struct.switch_record_t = type { i32, i32, ptr, ptr, ptr, i16, i16, i16, ptr, ptr, ptr, ptr }
%struct.node_record = type { ptr, ptr, i16, i64, i64, ptr, ptr, ptr, i16, ptr, i16, i16, i32, i32, i64, ptr, i16, i16, ptr, ptr, ptr, ptr, ptr, i64, i64, ptr, ptr, ptr, ptr, i32, ptr, ptr, i64, i64, i32, ptr, i64, ptr, i32, i16, ptr, ptr, i32, ptr, i32, i8, ptr, i32, i16, i16, ptr, i16, i64, i16, i64, ptr, i64, i32, i16, i64, i16, ptr, i16, i64, ptr, i64, i16, i32, i16, ptr, ptr, ptr, i16, i32, i16, i16, i32, ptr, i16, i32 }

@switch_record_cnt = external global i32, align 4
@switch_record_table = external global ptr, align 8
@.str.3 = private unnamed_addr constant [5 x i8] c"node\00", align 1
@.str.4 = private unnamed_addr constant [1 x i8] zeroinitializer, align 1
@.str.5 = private unnamed_addr constant [2 x i8] c".\00", align 1
@.str.6 = private unnamed_addr constant [8 x i8] c"switch.\00", align 1

; Function Attrs: nounwind uwtable
define dso_local i32 @topology_p_get_node_addr(ptr noundef %0, ptr noundef %1, ptr noundef %2) #0 {
  %4 = alloca i32, align 4
  %5 = alloca ptr, align 8
  %6 = alloca ptr, align 8
  %7 = alloca ptr, align 8
  %8 = alloca ptr, align 8
  %9 = alloca ptr, align 8
  %10 = alloca i32, align 4
  %11 = alloca i32, align 4
  %12 = alloca i32, align 4
  %13 = alloca i32, align 4
  %14 = alloca ptr, align 8
  store ptr %0, ptr %5, align 8
  store ptr %1, ptr %6, align 8
  store ptr %2, ptr %7, align 8
  call void @llvm.lifetime.start.p0(i64 8, ptr %8) #10
  call void @llvm.lifetime.start.p0(i64 8, ptr %9) #10
  store ptr null, ptr %9, align 8
  call void @llvm.lifetime.start.p0(i64 4, ptr %10) #10
  store i32 0, ptr %10, align 4
  call void @llvm.lifetime.start.p0(i64 4, ptr %11) #10
  call void @llvm.lifetime.start.p0(i64 4, ptr %12) #10
  %15 = load i32, ptr @switch_record_cnt, align 4
  %16 = icmp eq i32 %15, 0
  br i1 %16, label %17, label %23

17:                                               ; preds = %3
  %18 = load ptr, ptr %5, align 8
  %19 = call ptr @slurm_xstrdup(ptr noundef %18)
  %20 = load ptr, ptr %6, align 8
  store ptr %19, ptr %20, align 8
  %21 = call ptr @slurm_xstrdup(ptr noundef @.str.3)
  %22 = load ptr, ptr %7, align 8
  store ptr %21, ptr %22, align 8
  store i32 0, ptr %4, align 4
  store i32 1, ptr %13, align 4
  br label %135

23:                                               ; preds = %3
  %24 = load ptr, ptr %5, align 8
  %25 = call ptr @slurm_find_node_record(ptr noundef %24)
  store ptr %25, ptr %8, align 8
  %26 = load ptr, ptr %8, align 8
  %27 = icmp eq ptr %26, null
  br i1 %27, label %28, label %29

28:                                               ; preds = %23
  store i32 -1, ptr %4, align 4
  store i32 1, ptr %13, align 4
  br label %135

29:                                               ; preds = %23
  store i32 0, ptr %11, align 4
  br label %30

30:                                               ; preds = %51, %29
  %31 = load i32, ptr %11, align 4
  %32 = load i32, ptr @switch_record_cnt, align 4
  %33 = icmp slt i32 %31, %32
  br i1 %33, label %34, label %54

34:                                               ; preds = %30
  %35 = load ptr, ptr @switch_record_table, align 8
  %36 = load i32, ptr %11, align 4
  %37 = sext i32 %36 to i64
  %38 = getelementptr inbounds %struct.switch_record_t, ptr %35, i64 %37
  %39 = getelementptr inbounds nuw %struct.switch_record_t, ptr %38, i32 0, i32 0
  %40 = load i32, ptr %39, align 8
  %41 = load i32, ptr %10, align 4
  %42 = icmp sgt i32 %40, %41
  br i1 %42, label %43, label %50

43:                                               ; preds = %34
  %44 = load ptr, ptr @switch_record_table, align 8
  %45 = load i32, ptr %11, align 4
  %46 = sext i32 %45 to i64
  %47 = getelementptr inbounds %struct.switch_record_t, ptr %44, i64 %46
  %48 = getelementptr inbounds nuw %struct.switch_record_t, ptr %47, i32 0, i32 0
  %49 = load i32, ptr %48, align 8
  store i32 %49, ptr %10, align 4
  br label %50

50:                                               ; preds = %43, %34
  br label %51

51:                                               ; preds = %50
  %52 = load i32, ptr %11, align 4
  %53 = add nsw i32 %52, 1
  store i32 %53, ptr %11, align 4
  br label %30, !llvm.loop !14

54:                                               ; preds = %30
  %55 = call ptr @slurm_xstrdup(ptr noundef @.str.4)
  %56 = load ptr, ptr %6, align 8
  store ptr %55, ptr %56, align 8
  %57 = call ptr @slurm_xstrdup(ptr noundef @.str.4)
  %58 = load ptr, ptr %7, align 8
  store ptr %57, ptr %58, align 8
  %59 = load i32, ptr %10, align 4
  store i32 %59, ptr %12, align 4
  br label %60

60:                                               ; preds = %128, %54
  %61 = load i32, ptr %12, align 4
  %62 = icmp sge i32 %61, 0
  br i1 %62, label %63, label %131

63:                                               ; preds = %60
  store i32 0, ptr %11, align 4
  br label %64

64:                                               ; preds = %113, %63
  %65 = load i32, ptr %11, align 4
  %66 = load i32, ptr @switch_record_cnt, align 4
  %67 = icmp slt i32 %65, %66
  br i1 %67, label %68, label %116

68:                                               ; preds = %64
  %69 = load ptr, ptr @switch_record_table, align 8
  %70 = load i32, ptr %11, align 4
  %71 = sext i32 %70 to i64
  %72 = getelementptr inbounds %struct.switch_record_t, ptr %69, i64 %71
  %73 = getelementptr inbounds nuw %struct.switch_record_t, ptr %72, i32 0, i32 0
  %74 = load i32, ptr %73, align 8
  %75 = load i32, ptr %12, align 4
  %76 = icmp ne i32 %74, %75
  br i1 %76, label %77, label %78

77:                                               ; preds = %68
  br label %113

78:                                               ; preds = %68
  %79 = load ptr, ptr @switch_record_table, align 8
  %80 = load i32, ptr %11, align 4
  %81 = sext i32 %80 to i64
  %82 = getelementptr inbounds %struct.switch_record_t, ptr %79, i64 %81
  %83 = getelementptr inbounds nuw %struct.switch_record_t, ptr %82, i32 0, i32 3
  %84 = load ptr, ptr %83, align 8
  %85 = load ptr, ptr %8, align 8
  %86 = getelementptr inbounds nuw %struct.node_record, ptr %85, i32 0, i32 29
  %87 = load i32, ptr %86, align 8
  %88 = zext i32 %87 to i64
  %89 = call i32 @slurm_bit_test(ptr noundef %84, i64 noundef %88)
  %90 = icmp ne i32 %89, 0
  br i1 %90, label %92, label %91

91:                                               ; preds = %78
  br label %113

92:                                               ; preds = %78
  %93 = load ptr, ptr %9, align 8
  %94 = icmp eq ptr %93, null
  br i1 %94, label %95, label %103

95:                                               ; preds = %92
  %96 = load ptr, ptr @switch_record_table, align 8
  %97 = load i32, ptr %11, align 4
  %98 = sext i32 %97 to i64
  %99 = getelementptr inbounds %struct.switch_record_t, ptr %96, i64 %98
  %100 = getelementptr inbounds nuw %struct.switch_record_t, ptr %99, i32 0, i32 2
  %101 = load ptr, ptr %100, align 8
  %102 = call ptr @slurm_hostlist_create(ptr noundef %101)
  store ptr %102, ptr %9, align 8
  br label %112

103:                                              ; preds = %92
  %104 = load ptr, ptr %9, align 8
  %105 = load ptr, ptr @switch_record_table, align 8
  %106 = load i32, ptr %11, align 4
  %107 = sext i32 %106 to i64
  %108 = getelementptr inbounds %struct.switch_record_t, ptr %105, i64 %107
  %109 = getelementptr inbounds nuw %struct.switch_record_t, ptr %108, i32 0, i32 2
  %110 = load ptr, ptr %109, align 8
  %111 = call i32 @slurm_hostlist_push_host(ptr noundef %104, ptr noundef %110)
  br label %112

112:                                              ; preds = %103, %95
  br label %113

113:                                              ; preds = %112, %91, %77
  %114 = load i32, ptr %11, align 4
  %115 = add nsw i32 %114, 1
  store i32 %115, ptr %11, align 4
  br label %64, !llvm.loop !15

116:                                              ; preds = %64
  %117 = load ptr, ptr %9, align 8
  %118 = icmp ne ptr %117, null
  br i1 %118, label %119, label %125

119:                                              ; preds = %116
  call void @llvm.lifetime.start.p0(i64 8, ptr %14) #10
  %120 = load ptr, ptr %9, align 8
  %121 = call ptr @slurm_hostlist_ranged_string_xmalloc(ptr noundef %120)
  store ptr %121, ptr %14, align 8
  %122 = load ptr, ptr %6, align 8
  %123 = load ptr, ptr %14, align 8
  call void @slurm_xstrcat(ptr noundef %122, ptr noundef %123)
  call void @slurm_xfree(ptr noundef %14)
  %124 = load ptr, ptr %9, align 8
  call void @slurm_hostlist_destroy(ptr noundef %124)
  store ptr null, ptr %9, align 8
  call void @llvm.lifetime.end.p0(i64 8, ptr %14) #10
  br label %125

125:                                              ; preds = %119, %116
  %126 = load ptr, ptr %6, align 8
  call void @slurm_xstrcat(ptr noundef %126, ptr noundef @.str.5)
  %127 = load ptr, ptr %7, align 8
  call void @slurm_xstrcat(ptr noundef %127, ptr noundef @.str.6)
  br label %128

128:                                              ; preds = %125
  %129 = load i32, ptr %12, align 4
  %130 = add nsw i32 %129, -1
  store i32 %130, ptr %12, align 4
  br label %60, !llvm.loop !16

131:                                              ; preds = %60
  %132 = load ptr, ptr %6, align 8
  %133 = load ptr, ptr %5, align 8
  call void @slurm_xstrcat(ptr noundef %132, ptr noundef %133)
  %134 = load ptr, ptr %7, align 8
  call void @slurm_xstrcat(ptr noundef %134, ptr noundef @.str.3)
  store i32 0, ptr %4, align 4
  store i32 1, ptr %13, align 4
  br label %135

135:                                              ; preds = %131, %28, %17
  call void @llvm.lifetime.end.p0(i64 4, ptr %12) #10
  call void @llvm.lifetime.end.p0(i64 4, ptr %11) #10
  call void @llvm.lifetime.end.p0(i64 4, ptr %10) #10
  call void @llvm.lifetime.end.p0(i64 8, ptr %9) #10
  call void @llvm.lifetime.end.p0(i64 8, ptr %8) #10
  %136 = load i32, ptr %4, align 4
  ret i32 %136
}