; Function Attrs: nounwind uwtable
define dso_local range(i32 -1, 1) i32 @topology_p_get_node_addr(ptr noundef %0, ptr noundef %1, ptr noundef %2) local_unnamed_addr #0 {
  %4 = alloca ptr, align 8
  %5 = load i32, ptr @switch_record_cnt, align 4
  %6 = icmp eq i32 %5, 0
  br i1 %6, label %7, label %10

7:                                                ; preds = %3
  %8 = tail call ptr @slurm_xstrdup(ptr noundef %0) #13
  store ptr %8, ptr %1, align 8
  %9 = tail call ptr @slurm_xstrdup(ptr noundef nonnull @.str.3) #13
  store ptr %9, ptr %2, align 8
  br label %50

10:                                               ; preds = %3
  %11 = tail call ptr @slurm_find_node_record(ptr noundef %0) #13
  %12 = icmp eq ptr %11, null
  br i1 %12, label %50, label %.preheader44

.preheader44:                                     ; preds = %10
  %13 = load i32, ptr @switch_record_cnt, align 4
  %14 = icmp sgt i32 %13, 0
  br i1 %14, label %.lr.ph, label %.preheader.lr.ph

.lr.ph:                                           ; preds = %.preheader44
  %15 = load ptr, ptr @switch_record_table, align 8
  %wide.trip.count = zext nneg i32 %13 to i64
  br label %16

16:                                               ; preds = %.lr.ph, %16
  %indvars.iv = phi i64 [ 0, %.lr.ph ], [ %indvars.iv.next, %16 ]
  %.03545 = phi i32 [ 0, %.lr.ph ], [ %spec.select, %16 ]
  %17 = getelementptr inbounds nuw %struct.switch_record_t, ptr %15, i64 %indvars.iv
  %18 = load i32, ptr %17, align 8
  %spec.select = tail call i32 @llvm.smax.i32(i32 %18, i32 %.03545)
  %indvars.iv.next = add nuw nsw i64 %indvars.iv, 1
  %exitcond.not = icmp eq i64 %indvars.iv.next, %wide.trip.count
  br i1 %exitcond.not, label %.preheader.lr.ph, label %16, !llvm.loop !14

.preheader.lr.ph:                                 ; preds = %16, %.preheader44
  %.035.lcssa = phi i32 [ 0, %.preheader44 ], [ %spec.select, %16 ]
  %19 = tail call ptr @slurm_xstrdup(ptr noundef nonnull @.str.4) #13
  store ptr %19, ptr %1, align 8
  %20 = tail call ptr @slurm_xstrdup(ptr noundef nonnull @.str.4) #13
  store ptr %20, ptr %2, align 8
  %21 = getelementptr inbounds nuw i8, ptr %11, i64 208
  br label %.preheader

.preheader:                                       ; preds = %.preheader.lr.ph, %._crit_edge50.thread
  %.052 = phi i32 [ %.035.lcssa, %.preheader.lr.ph ], [ %48, %._crit_edge50.thread ]
  %22 = load i32, ptr @switch_record_cnt, align 4
  %23 = icmp sgt i32 %22, 0
  br i1 %23, label %.lr.ph49, label %._crit_edge50.thread

.lr.ph49:                                         ; preds = %.preheader, %42
  %indvars.iv55 = phi i64 [ %indvars.iv.next56, %42 ], [ 0, %.preheader ]
  %.13847 = phi ptr [ %.2, %42 ], [ null, %.preheader ]
  %24 = load ptr, ptr @switch_record_table, align 8
  %25 = getelementptr inbounds nuw %struct.switch_record_t, ptr %24, i64 %indvars.iv55
  %26 = load i32, ptr %25, align 8
  %.not42 = icmp eq i32 %26, %.052
  br i1 %.not42, label %27, label %42

27:                                               ; preds = %.lr.ph49
  %28 = getelementptr inbounds nuw i8, ptr %25, i64 16
  %29 = load ptr, ptr %28, align 8
  %30 = load i32, ptr %21, align 8
  %31 = zext i32 %30 to i64
  %32 = call i32 @slurm_bit_test(ptr noundef %29, i64 noundef %31) #13
  %.not43 = icmp eq i32 %32, 0
  br i1 %.not43, label %42, label %33

33:                                               ; preds = %27
  %34 = icmp eq ptr %.13847, null
  %35 = load ptr, ptr @switch_record_table, align 8
  %36 = getelementptr inbounds nuw %struct.switch_record_t, ptr %35, i64 %indvars.iv55, i32 2
  %37 = load ptr, ptr %36, align 8
  br i1 %34, label %38, label %40

38:                                               ; preds = %33
  %39 = call ptr @slurm_hostlist_create(ptr noundef %37) #13
  br label %42

40:                                               ; preds = %33
  %41 = call i32 @slurm_hostlist_push_host(ptr noundef nonnull %.13847, ptr noundef %37) #13
  br label %42

42:                                               ; preds = %38, %40, %27, %.lr.ph49
  %.2 = phi ptr [ %.13847, %.lr.ph49 ], [ %39, %38 ], [ %.13847, %40 ], [ %.13847, %27 ]
  %indvars.iv.next56 = add nuw nsw i64 %indvars.iv55, 1
  %43 = load i32, ptr @switch_record_cnt, align 4
  %44 = sext i32 %43 to i64
  %45 = icmp slt i64 %indvars.iv.next56, %44
  br i1 %45, label %.lr.ph49, label %._crit_edge50, !llvm.loop !15

._crit_edge50:                                    ; preds = %42
  %.not = icmp eq ptr %.2, null
  br i1 %.not, label %._crit_edge50.thread, label %46

46:                                               ; preds = %._crit_edge50
  call void @llvm.lifetime.start.p0(i64 8, ptr nonnull %4) #13
  %47 = call ptr @slurm_hostlist_ranged_string_xmalloc(ptr noundef nonnull %.2) #13
  store ptr %47, ptr %4, align 8
  call void @slurm_xstrcat(ptr noundef nonnull %1, ptr noundef %47) #13
  call void @slurm_xfree(ptr noundef nonnull %4) #13
  call void @slurm_hostlist_destroy(ptr noundef nonnull %.2) #13
  call void @llvm.lifetime.end.p0(i64 8, ptr nonnull %4) #13
  br label %._crit_edge50.thread

._crit_edge50.thread:                             ; preds = %.preheader, %46, %._crit_edge50
  call void @slurm_xstrcat(ptr noundef nonnull %1, ptr noundef nonnull @.str.5) #13
  call void @slurm_xstrcat(ptr noundef nonnull %2, ptr noundef nonnull @.str.6) #13
  %48 = add nsw i32 %.052, -1
  %49 = icmp sgt i32 %.052, 0
  br i1 %49, label %.preheader, label %._crit_edge53, !llvm.loop !16

._crit_edge53:                                    ; preds = %._crit_edge50.thread
  call void @slurm_xstrcat(ptr noundef nonnull %1, ptr noundef %0) #13
  call void @slurm_xstrcat(ptr noundef nonnull %2, ptr noundef nonnull @.str.3) #13
  br label %50

50:                                               ; preds = %10, %._crit_edge53, %7
  %.039 = phi i32 [ 0, %7 ], [ 0, %._crit_edge53 ], [ -1, %10 ]
  ret i32 %.039
}